; Function Attrs: mustprogress uwtable
define dso_local void @_ZN4Luau5Lexer20fixupMultilineStringERNSt7__cxx1112basic_stringIcSt11char_traitsIcESaIcEEE(ptr noundef nonnull align 8 dereferenceable(32) %0) local_unnamed_addr #5 align 2 personality ptr @__gxx_personality_v0 {
  %2 = getelementptr inbounds nuw i8, ptr %0, i64 8
  %3 = load i64, ptr %2, align 8, !tbaa !20
  %4 = icmp eq i64 %3, 0
  br i1 %4, label %30, label %5

5:                                                ; preds = %1
  %6 = load ptr, ptr %0, align 8, !tbaa !24
  %7 = load i8, ptr %6, align 1, !tbaa !15
  %8 = icmp eq i8 %7, 13
  br i1 %8, label %9, label %13

9:                                                ; preds = %5
  %10 = getelementptr inbounds nuw i8, ptr %6, i64 1
  %11 = load i8, ptr %10, align 1, !tbaa !15
  %12 = icmp eq i8 %11, 10
  br i1 %12, label %15, label %13

13:                                               ; preds = %9, %5
  %14 = icmp eq i8 %7, 10
  %spec.select.idx = zext i1 %14 to i64
  br label %15

15:                                               ; preds = %9, %13
  %spec.select.idx.sink = phi i64 [ %spec.select.idx, %13 ], [ 2, %9 ]
  %spec.select = getelementptr inbounds nuw i8, ptr %6, i64 %spec.select.idx.sink
  br label %16

16:                                               ; preds = %23, %15
  %.120 = phi ptr [ %spec.select, %15 ], [ %24, %23 ]
  %.0 = phi ptr [ %6, %15 ], [ %.1, %23 ]
  %17 = load i8, ptr %.120, align 1, !tbaa !15
  switch i8 %17, label %22 [
    i8 0, label %25
    i8 13, label %18
  ]

18:                                               ; preds = %16
  %19 = getelementptr inbounds nuw i8, ptr %.120, i64 1
  %20 = load i8, ptr %19, align 1, !tbaa !15
  %21 = icmp eq i8 %20, 10
  br i1 %21, label %23, label %22

22:                                               ; preds = %16, %18
  br label %23

23:                                               ; preds = %18, %22
  %.sink22 = phi i8 [ %17, %22 ], [ 10, %18 ]
  %.sink = phi i64 [ 1, %22 ], [ 2, %18 ]
  store i8 %.sink22, ptr %.0, align 1, !tbaa !15
  %24 = getelementptr inbounds nuw i8, ptr %.120, i64 %.sink
  %.1 = getelementptr inbounds nuw i8, ptr %.0, i64 1
  br label %16, !llvm.loop !108

25:                                               ; preds = %16
  %26 = load ptr, ptr %0, align 8, !tbaa !24
  %27 = ptrtoint ptr %.0 to i64
  %28 = ptrtoint ptr %26 to i64
  %29 = sub i64 %27, %28
  tail call void @_ZNSt7__cxx1112basic_stringIcSt11char_traitsIcESaIcEE6resizeEmc(ptr noundef nonnull align 8 dereferenceable(32) %0, i64 noundef %29, i8 noundef signext 0)
  br label %30

30:                                               ; preds = %1, %25
  ret void
}